(lp0
S'10410616_840024586053769_903600346377711787_n.jpg'
p1
aS'A4-150-dpi-pixels-size.jpg'
p2
aS'S__29679624.jpg'
p3
aS'time.teerapat_17850765019128376.jpg'
p4
aS'time.teerapat_17850859000081593.jpg'
p5
aS'time.teerapat_17850980950099122.jpg'
p6
aS'time.teerapat_17860979431016394.jpg'
p7
aS'time.teerapat_blabla.jpg'
p8
a.